; Function Attrs: nofree norecurse nosync nounwind memory(read, inaccessiblemem: none) uwtable
define dso_local i64 @Curl_bufq_len(ptr noundef readonly captures(none) %0) local_unnamed_addr #5 {
  %.057 = load ptr, ptr %0, align 8
  %.not8 = icmp eq ptr %.057, null
  br i1 %.not8, label %._crit_edge, label %.lr.ph

.lr.ph:                                           ; preds = %1, %.lr.ph
  %.0510 = phi ptr [ %.05, %.lr.ph ], [ %.057, %1 ]
  %.09 = phi i64 [ %5, %.lr.ph ], [ 0, %1 ]
  %2 = getelementptr i8, ptr %.0510, i64 16
  %.05.val = load i64, ptr %2, align 8
  %3 = getelementptr i8, ptr %.0510, i64 24
  %.05.val6 = load i64, ptr %3, align 8
  %4 = sub i64 %.09, %.05.val
  %5 = add i64 %4, %.05.val6
  %.05 = load ptr, ptr %.0510, align 8
  %.not = icmp eq ptr %.05, null
  br i1 %.not, label %._crit_edge, label %.lr.ph, !llvm.loop !8

._crit_edge:                                      ; preds = %.lr.ph, %1
  %.0.lcssa = phi i64 [ 0, %1 ], [ %5, %.lr.ph ]
  ret i64 %.0.lcssa
}